target datalayout = "e-m:e-p270:32:32-p271:32:32-p272:64:64-i64:64-i128:128-f80:128-n8:16:32:64-S128"
target triple = "x86_64-unknown-linux-gnu"

%struct.QTailQLink = type { ptr, ptr }
%struct.QObject = type { %struct.QObjectBase_ }
%struct.QObjectBase_ = type { i32, i64 }
%struct.QDictEntry = type { ptr, ptr, %struct.anon.15 }
%struct.anon.15 = type { ptr, ptr }
%struct.QListEntry = type { ptr, %union.anon.16 }
%union.anon.16 = type { %struct.QTailQLink }
%struct.QList = type { %struct.QObjectBase_, %union.anon.17 }
%union.anon.17 = type { %struct.QTailQLink }

@.str.20 = private unnamed_addr constant [1 x i8] zeroinitializer, align 1
@.str.36 = private unnamed_addr constant [2 x i8] c"\0A\00", align 1
@.str.39 = private unnamed_addr constant [3 x i8] c"%s\00", align 1
@.str.43 = private unnamed_addr constant [59 x i8] c"QTYPE_NONE < obj->base.type && obj->base.type < QTYPE__MAX\00", align 1
@.str.44 = private unnamed_addr constant [105 x i8] c"/home/dtcxzyw/WorkSpace/Projects/compilers/llvm-opt-benchmark/bench/qemu/qemu/include/qapi/qmp/qobject.h\00", align 1
@__PRETTY_FUNCTION__.qobject_type = private unnamed_addr constant [36 x i8] c"QType qobject_type(const QObject *)\00", align 1
@.str.45 = private unnamed_addr constant [5 x i8] c"true\00", align 1
@.str.46 = private unnamed_addr constant [6 x i8] c"false\00", align 1
@.str.47 = private unnamed_addr constant [9 x i8] c"%*s%s:%c\00", align 1
@.str.48 = private unnamed_addr constant [11 x i8] c"%*s[%i]:%c\00", align 1

; Function Attrs: nounwind sspstrong uwtable
define internal ptr @qlist_next(ptr noundef %entry1) #0 {
entry:
  %entry.addr = alloca ptr, align 8
  store ptr %entry1, ptr %entry.addr, align 8
  %0 = load ptr, ptr %entry.addr, align 8
  %next = getelementptr inbounds %struct.QListEntry, ptr %0, i32 0, i32 1
  %1 = load ptr, ptr %next, align 8
  ret ptr %1
}

; Function Attrs: nounwind sspstrong uwtable
define internal ptr @qlist_first(ptr noundef %qlist) #0 {
entry:
  %qlist.addr = alloca ptr, align 8
  store ptr %qlist, ptr %qlist.addr, align 8
  %0 = load ptr, ptr %qlist.addr, align 8
  %head = getelementptr inbounds %struct.QList, ptr %0, i32 0, i32 1
  %1 = load ptr, ptr %head, align 8
  ret ptr %1
}

; Function Attrs: nounwind sspstrong uwtable
define internal void @dump_qlist(i32 noundef %indentation, ptr noundef %list) #0 {
entry:
  %indentation.addr = alloca i32, align 4
  %list.addr = alloca ptr, align 8
  %entry1 = alloca ptr, align 8
  %i = alloca i32, align 4
  %type = alloca i32, align 4
  %composite = alloca i8, align 1
  store i32 %indentation, ptr %indentation.addr, align 4
  store ptr %list, ptr %list.addr, align 8
  store i32 0, ptr %i, align 4
  %0 = load ptr, ptr %list.addr, align 8
  %call = call ptr @qlist_first(ptr noundef %0)
  store ptr %call, ptr %entry1, align 8
  br label %for.cond

for.cond:                                         ; preds = %for.inc, %entry
  %1 = load ptr, ptr %entry1, align 8
  %tobool = icmp ne ptr %1, null
  br i1 %tobool, label %for.body, label %for.end

for.body:                                         ; preds = %for.cond
  %2 = load ptr, ptr %entry1, align 8
  %value = getelementptr inbounds %struct.QListEntry, ptr %2, i32 0, i32 0
  %3 = load ptr, ptr %value, align 8
  %call2 = call i32 @qobject_type(ptr noundef %3)
  store i32 %call2, ptr %type, align 4
  %4 = load i32, ptr %type, align 4
  %cmp = icmp eq i32 %4, 4
  br i1 %cmp, label %lor.end, label %lor.rhs

lor.rhs:                                          ; preds = %for.body
  %5 = load i32, ptr %type, align 4
  %cmp3 = icmp eq i32 %5, 5
  br label %lor.end

lor.end:                                          ; preds = %lor.rhs, %for.body
  %6 = phi i1 [ true, %for.body ], [ %cmp3, %lor.rhs ]
  %frombool = zext i1 %6 to i8
  store i8 %frombool, ptr %composite, align 1
  %7 = load i32, ptr %indentation.addr, align 4
  %mul = mul i32 %7, 4
  %8 = load i32, ptr %i, align 4
  %9 = load i8, ptr %composite, align 1
  %tobool4 = trunc i8 %9 to i1
  %cond = select i1 %tobool4, i32 10, i32 32
  %call5 = call i32 (ptr, ...) @qemu_printf(ptr noundef @.str.48, i32 noundef %mul, ptr noundef @.str.20, i32 noundef %8, i32 noundef %cond)
  %10 = load i32, ptr %indentation.addr, align 4
  %add = add i32 %10, 1
  %11 = load ptr, ptr %entry1, align 8
  %value6 = getelementptr inbounds %struct.QListEntry, ptr %11, i32 0, i32 0
  %12 = load ptr, ptr %value6, align 8
  call void @dump_qobject(i32 noundef %add, ptr noundef %12)
  %13 = load i8, ptr %composite, align 1
  %tobool7 = trunc i8 %13 to i1
  br i1 %tobool7, label %if.end, label %if.then

if.then:                                          ; preds = %lor.end
  %call8 = call i32 (ptr, ...) @qemu_printf(ptr noundef @.str.36)
  br label %if.end

if.end:                                           ; preds = %if.then, %lor.end
  br label %for.inc

for.inc:                                          ; preds = %if.end
  %14 = load ptr, ptr %entry1, align 8
  %call9 = call ptr @qlist_next(ptr noundef %14)
  store ptr %call9, ptr %entry1, align 8
  %15 = load i32, ptr %i, align 4
  %inc = add i32 %15, 1
  store i32 %inc, ptr %i, align 4
  br label %for.cond, !llvm.loop !18

for.end:                                          ; preds = %for.cond
  ret void
}

; Function Attrs: nounwind sspstrong uwtable
define internal void @dump_qdict(i32 noundef %indentation, ptr noundef %dict) #0 {
entry:
  %indentation.addr = alloca i32, align 4
  %dict.addr = alloca ptr, align 8
  %entry1 = alloca ptr, align 8
  %type = alloca i32, align 4
  %composite = alloca i8, align 1
  %key = alloca ptr, align 8
  %i = alloca i32, align 4
  store i32 %indentation, ptr %indentation.addr, align 4
  store ptr %dict, ptr %dict.addr, align 8
  %0 = load ptr, ptr %dict.addr, align 8
  %call = call ptr @qdict_first(ptr noundef %0)
  store ptr %call, ptr %entry1, align 8
  br label %for.cond

for.cond:                                         ; preds = %for.inc33, %entry
  %1 = load ptr, ptr %entry1, align 8
  %tobool = icmp ne ptr %1, null
  br i1 %tobool, label %for.body, label %for.end35

for.body:                                         ; preds = %for.cond
  %2 = load ptr, ptr %entry1, align 8
  %value = getelementptr inbounds %struct.QDictEntry, ptr %2, i32 0, i32 1
  %3 = load ptr, ptr %value, align 8
  %call2 = call i32 @qobject_type(ptr noundef %3)
  store i32 %call2, ptr %type, align 4
  %4 = load i32, ptr %type, align 4
  %cmp = icmp eq i32 %4, 4
  br i1 %cmp, label %lor.end, label %lor.rhs

lor.rhs:                                          ; preds = %for.body
  %5 = load i32, ptr %type, align 4
  %cmp3 = icmp eq i32 %5, 5
  br label %lor.end

lor.end:                                          ; preds = %lor.rhs, %for.body
  %6 = phi i1 [ true, %for.body ], [ %cmp3, %lor.rhs ]
  %frombool = zext i1 %6 to i8
  store i8 %frombool, ptr %composite, align 1
  %7 = load ptr, ptr %entry1, align 8
  %key4 = getelementptr inbounds %struct.QDictEntry, ptr %7, i32 0, i32 0
  %8 = load ptr, ptr %key4, align 8
  %call5 = call i64 @strlen(ptr noundef %8) #13
  %add = add i64 %call5, 1
  %call6 = call noalias ptr @g_malloc(i64 noundef %add) #9
  store ptr %call6, ptr %key, align 8
  store i32 0, ptr %i, align 4
  br label %for.cond7

for.cond7:                                        ; preds = %for.inc, %lor.end
  %9 = load ptr, ptr %entry1, align 8
  %key8 = getelementptr inbounds %struct.QDictEntry, ptr %9, i32 0, i32 0
  %10 = load ptr, ptr %key8, align 8
  %11 = load i32, ptr %i, align 4
  %idxprom = sext i32 %11 to i64
  %arrayidx = getelementptr i8, ptr %10, i64 %idxprom
  %12 = load i8, ptr %arrayidx, align 1
  %tobool9 = icmp ne i8 %12, 0
  br i1 %tobool9, label %for.body10, label %for.end

for.body10:                                       ; preds = %for.cond7
  %13 = load ptr, ptr %entry1, align 8
  %key11 = getelementptr inbounds %struct.QDictEntry, ptr %13, i32 0, i32 0
  %14 = load ptr, ptr %key11, align 8
  %15 = load i32, ptr %i, align 4
  %idxprom12 = sext i32 %15 to i64
  %arrayidx13 = getelementptr i8, ptr %14, i64 %idxprom12
  %16 = load i8, ptr %arrayidx13, align 1
  %conv = sext i8 %16 to i32
  %cmp14 = icmp eq i32 %conv, 45
  br i1 %cmp14, label %cond.true, label %cond.false

cond.true:                                        ; preds = %for.body10
  br label %cond.end

cond.false:                                       ; preds = %for.body10
  %17 = load ptr, ptr %entry1, align 8
  %key16 = getelementptr inbounds %struct.QDictEntry, ptr %17, i32 0, i32 0
  %18 = load ptr, ptr %key16, align 8
  %19 = load i32, ptr %i, align 4
  %idxprom17 = sext i32 %19 to i64
  %arrayidx18 = getelementptr i8, ptr %18, i64 %idxprom17
  %20 = load i8, ptr %arrayidx18, align 1
  %conv19 = sext i8 %20 to i32
  br label %cond.end

cond.end:                                         ; preds = %cond.false, %cond.true
  %cond = phi i32 [ 32, %cond.true ], [ %conv19, %cond.false ]
  %conv20 = trunc i32 %cond to i8
  %21 = load ptr, ptr %key, align 8
  %22 = load i32, ptr %i, align 4
  %idxprom21 = sext i32 %22 to i64
  %arrayidx22 = getelementptr i8, ptr %21, i64 %idxprom21
  store i8 %conv20, ptr %arrayidx22, align 1
  br label %for.inc

for.inc:                                          ; preds = %cond.end
  %23 = load i32, ptr %i, align 4
  %inc = add i32 %23, 1
  store i32 %inc, ptr %i, align 4
  br label %for.cond7, !llvm.loop !16

for.end:                                          ; preds = %for.cond7
  %24 = load ptr, ptr %key, align 8
  %25 = load i32, ptr %i, align 4
  %idxprom23 = sext i32 %25 to i64
  %arrayidx24 = getelementptr i8, ptr %24, i64 %idxprom23
  store i8 0, ptr %arrayidx24, align 1
  %26 = load i32, ptr %indentation.addr, align 4
  %mul = mul i32 %26, 4
  %27 = load ptr, ptr %key, align 8
  %28 = load i8, ptr %composite, align 1
  %tobool25 = trunc i8 %28 to i1
  %cond27 = select i1 %tobool25, i32 10, i32 32
  %call28 = call i32 (ptr, ...) @qemu_printf(ptr noundef @.str.47, i32 noundef %mul, ptr noundef @.str.20, ptr noundef %27, i32 noundef %cond27)
  %29 = load i32, ptr %indentation.addr, align 4
  %add29 = add i32 %29, 1
  %30 = load ptr, ptr %entry1, align 8
  %value30 = getelementptr inbounds %struct.QDictEntry, ptr %30, i32 0, i32 1
  %31 = load ptr, ptr %value30, align 8
  call void @dump_qobject(i32 noundef %add29, ptr noundef %31)
  %32 = load i8, ptr %composite, align 1
  %tobool31 = trunc i8 %32 to i1
  br i1 %tobool31, label %if.end, label %if.then

if.then:                                          ; preds = %for.end
  %call32 = call i32 (ptr, ...) @qemu_printf(ptr noundef @.str.36)
  br label %if.end

if.end:                                           ; preds = %if.then, %for.end
  %33 = load ptr, ptr %key, align 8
  call void @g_free(ptr noundef %33)
  br label %for.inc33

for.inc33:                                        ; preds = %if.end
  %34 = load ptr, ptr %dict.addr, align 8
  %35 = load ptr, ptr %entry1, align 8
  %call34 = call ptr @qdict_next(ptr noundef %34, ptr noundef %35)
  store ptr %call34, ptr %entry1, align 8
  br label %for.cond, !llvm.loop !17

for.end35:                                        ; preds = %for.cond
  ret void
}

; Function Attrs: nounwind sspstrong uwtable
define internal ptr @qobject_check_type(ptr noundef %obj, i32 noundef %type) #0 {
entry:
  %retval = alloca ptr, align 8
  %obj.addr = alloca ptr, align 8
  %type.addr = alloca i32, align 4
  store ptr %obj, ptr %obj.addr, align 8
  store i32 %type, ptr %type.addr, align 4
  %0 = load ptr, ptr %obj.addr, align 8
  %tobool = icmp ne ptr %0, null
  br i1 %tobool, label %land.lhs.true, label %if.else

land.lhs.true:                                    ; preds = %entry
  %1 = load ptr, ptr %obj.addr, align 8
  %call = call i32 @qobject_type(ptr noundef %1)
  %2 = load i32, ptr %type.addr, align 4
  %cmp = icmp eq i32 %call, %2
  br i1 %cmp, label %if.then, label %if.else

if.then:                                          ; preds = %land.lhs.true
  %3 = load ptr, ptr %obj.addr, align 8
  store ptr %3, ptr %retval, align 8
  br label %return

if.else:                                          ; preds = %land.lhs.true, %entry
  store ptr null, ptr %retval, align 8
  br label %return

return:                                           ; preds = %if.else, %if.then
  %4 = load ptr, ptr %retval, align 8
  ret ptr %4
}

; Function Attrs: nounwind sspstrong uwtable
define internal i32 @qobject_type(ptr noundef %obj) #0 {
entry:
  %obj.addr = alloca ptr, align 8
  store ptr %obj, ptr %obj.addr, align 8
  %0 = load ptr, ptr %obj.addr, align 8
  %base = getelementptr inbounds %struct.QObject, ptr %0, i32 0, i32 0
  %type = getelementptr inbounds %struct.QObjectBase_, ptr %base, i32 0, i32 0
  %1 = load i32, ptr %type, align 8
  %cmp = icmp ult i32 0, %1
  br i1 %cmp, label %land.lhs.true, label %if.else

land.lhs.true:                                    ; preds = %entry
  %2 = load ptr, ptr %obj.addr, align 8
  %base1 = getelementptr inbounds %struct.QObject, ptr %2, i32 0, i32 0
  %type2 = getelementptr inbounds %struct.QObjectBase_, ptr %base1, i32 0, i32 0
  %3 = load i32, ptr %type2, align 8
  %cmp3 = icmp ult i32 %3, 7
  br i1 %cmp3, label %if.then, label %if.else

if.then:                                          ; preds = %land.lhs.true
  br label %if.end

if.else:                                          ; preds = %land.lhs.true, %entry
  call void @__assert_fail(ptr noundef @.str.43, ptr noundef @.str.44, i32 noundef 126, ptr noundef @__PRETTY_FUNCTION__.qobject_type) #11
  unreachable

if.end:                                           ; preds = %if.then
  %4 = load ptr, ptr %obj.addr, align 8
  %base4 = getelementptr inbounds %struct.QObject, ptr %4, i32 0, i32 0
  %type5 = getelementptr inbounds %struct.QObjectBase_, ptr %base4, i32 0, i32 0
  %5 = load i32, ptr %type5, align 8
  ret i32 %5
}

; Function Attrs: nounwind sspstrong uwtable
define internal void @dump_qobject(i32 noundef %comp_indent, ptr noundef %obj) #0 {
entry:
  %comp_indent.addr = alloca i32, align 4
  %obj.addr = alloca ptr, align 8
  %value = alloca ptr, align 8
  %tmp = alloca ptr, align 8
  %value5 = alloca ptr, align 8
  %value10 = alloca ptr, align 8
  %value13 = alloca ptr, align 8
  %value16 = alloca ptr, align 8
  store i32 %comp_indent, ptr %comp_indent.addr, align 4
  store ptr %obj, ptr %obj.addr, align 8
  %0 = load ptr, ptr %obj.addr, align 8
  %call = call i32 @qobject_type(ptr noundef %0)
  switch i32 %call, label %sw.default [
    i32 2, label %sw.bb
    i32 3, label %sw.bb4
    i32 4, label %sw.bb9
    i32 5, label %sw.bb12
    i32 6, label %sw.bb15
  ]

sw.bb:                                            ; preds = %entry
  %1 = load ptr, ptr %obj.addr, align 8
  %call1 = call ptr @qobject_check_type(ptr noundef %1, i32 noundef 2)
  store ptr %call1, ptr %value, align 8
  %2 = load ptr, ptr %value, align 8
  %call2 = call ptr @qnum_to_string(ptr noundef %2)
  store ptr %call2, ptr %tmp, align 8
  %3 = load ptr, ptr %tmp, align 8
  %call3 = call i32 (ptr, ...) @qemu_printf(ptr noundef @.str.39, ptr noundef %3)
  %4 = load ptr, ptr %tmp, align 8
  call void @g_free(ptr noundef %4)
  br label %sw.epilog

sw.bb4:                                           ; preds = %entry
  %5 = load ptr, ptr %obj.addr, align 8
  %call6 = call ptr @qobject_check_type(ptr noundef %5, i32 noundef 3)
  store ptr %call6, ptr %value5, align 8
  %6 = load ptr, ptr %value5, align 8
  %call7 = call ptr @qstring_get_str(ptr noundef %6)
  %call8 = call i32 (ptr, ...) @qemu_printf(ptr noundef @.str.39, ptr noundef %call7)
  br label %sw.epilog

sw.bb9:                                           ; preds = %entry
  %7 = load ptr, ptr %obj.addr, align 8
  %call11 = call ptr @qobject_check_type(ptr noundef %7, i32 noundef 4)
  store ptr %call11, ptr %value10, align 8
  %8 = load i32, ptr %comp_indent.addr, align 4
  %9 = load ptr, ptr %value10, align 8
  call void @dump_qdict(i32 noundef %8, ptr noundef %9)
  br label %sw.epilog

sw.bb12:                                          ; preds = %entry
  %10 = load ptr, ptr %obj.addr, align 8
  %call14 = call ptr @qobject_check_type(ptr noundef %10, i32 noundef 5)
  store ptr %call14, ptr %value13, align 8
  %11 = load i32, ptr %comp_indent.addr, align 4
  %12 = load ptr, ptr %value13, align 8
  call void @dump_qlist(i32 noundef %11, ptr noundef %12)
  br label %sw.epilog

sw.bb15:                                          ; preds = %entry
  %13 = load ptr, ptr %obj.addr, align 8
  %call17 = call ptr @qobject_check_type(ptr noundef %13, i32 noundef 6)
  store ptr %call17, ptr %value16, align 8
  %14 = load ptr, ptr %value16, align 8
  %call18 = call zeroext i1 @qbool_get_bool(ptr noundef %14)
  %cond = select i1 %call18, ptr @.str.45, ptr @.str.46
  %call19 = call i32 (ptr, ...) @qemu_printf(ptr noundef @.str.39, ptr noundef %cond)
  br label %sw.epilog

sw.default:                                       ; preds = %entry
  call void @abort() #11
  unreachable

sw.epilog:                                        ; preds = %sw.bb15, %sw.bb12, %sw.bb9, %sw.bb4, %sw.bb
  ret void
}