; Function Attrs: nounwind sspstrong uwtable
define internal fastcc void @dump_qobject(i32 noundef %comp_indent, ptr noundef %obj) unnamed_addr #0 {
entry:
  %obj.val = load i32, ptr %obj, align 8
  %0 = add i32 %obj.val, -1
  %or.cond.i = icmp ult i32 %0, 6
  br i1 %or.cond.i, label %qobject_type.exit, label %if.else.i

if.else.i:                                        ; preds = %entry
  tail call void @__assert_fail(ptr noundef nonnull @.str.43, ptr noundef nonnull @.str.44, i32 noundef 126, ptr noundef nonnull @__PRETTY_FUNCTION__.qobject_type) #13
  unreachable

qobject_type.exit:                                ; preds = %entry
  switch i32 %obj.val, label %sw.default [
    i32 2, label %qobject_check_type.exit
    i32 3, label %qobject_check_type.exit18
    i32 4, label %qobject_check_type.exit28
    i32 5, label %qobject_check_type.exit39
    i32 6, label %qobject_check_type.exit64
  ]

qobject_check_type.exit:                          ; preds = %qobject_type.exit
  %call2 = tail call ptr @qnum_to_string(ptr noundef nonnull %obj) #10
  %call3 = tail call i32 (ptr, ...) @qemu_printf(ptr noundef nonnull @.str.39, ptr noundef %call2) #10
  tail call void @g_free(ptr noundef %call2) #10
  br label %sw.epilog

qobject_check_type.exit18:                        ; preds = %qobject_type.exit
  %call7 = tail call ptr @qstring_get_str(ptr noundef nonnull %obj) #10
  %call8 = tail call i32 (ptr, ...) @qemu_printf(ptr noundef nonnull @.str.39, ptr noundef %call7) #10
  br label %sw.epilog

qobject_check_type.exit28:                        ; preds = %qobject_type.exit
  %call.i = tail call ptr @qdict_first(ptr noundef nonnull %obj) #10
  %tobool.not.i2978 = icmp eq ptr %call.i, null
  br i1 %tobool.not.i2978, label %sw.epilog, label %for.body.i.lr.ph

for.body.i.lr.ph:                                 ; preds = %qobject_check_type.exit28
  %mul.i = shl i32 %comp_indent, 2
  %add29.i = add i32 %comp_indent, 1
  br label %for.body.i

for.body.i:                                       ; preds = %for.body.i.lr.ph, %if.end.i
  %entry1.0.i79 = phi ptr [ %call.i, %for.body.i.lr.ph ], [ %call34.i, %if.end.i ]
  %value.i = getelementptr inbounds nuw i8, ptr %entry1.0.i79, i64 8
  %1 = load ptr, ptr %value.i, align 8
  %.val.i = load i32, ptr %1, align 8
  %2 = add i32 %.val.i, -1
  %or.cond.i65 = icmp ult i32 %2, 6
  br i1 %or.cond.i65, label %qobject_type.exit68, label %if.else.i66

if.else.i66:                                      ; preds = %for.body.i
  tail call void @__assert_fail(ptr noundef nonnull @.str.43, ptr noundef nonnull @.str.44, i32 noundef 126, ptr noundef nonnull @__PRETTY_FUNCTION__.qobject_type) #13
  unreachable

qobject_type.exit68:                              ; preds = %for.body.i
  %3 = and i32 %.val.i, 6
  %4 = load ptr, ptr %entry1.0.i79, align 8
  %call5.i = tail call i64 @strlen(ptr noundef nonnull dereferenceable(1) %4) #14
  %add.i = add i64 %call5.i, 1
  %call6.i = tail call noalias ptr @g_malloc(i64 noundef %add.i) #11
  br label %for.cond7.i

for.cond7.i:                                      ; preds = %cond.end.i, %qobject_type.exit68
  %i.0.i = phi i32 [ 0, %qobject_type.exit68 ], [ %inc.i, %cond.end.i ]
  %5 = load ptr, ptr %entry1.0.i79, align 8
  %idxprom.i = sext i32 %i.0.i to i64
  %arrayidx.i = getelementptr i8, ptr %5, i64 %idxprom.i
  %6 = load i8, ptr %arrayidx.i, align 1
  switch i8 %6, label %cond.false.i [
    i8 0, label %for.end.i
    i8 45, label %cond.end.i
  ]

cond.false.i:                                     ; preds = %for.cond7.i
  br label %cond.end.i

cond.end.i:                                       ; preds = %cond.false.i, %for.cond7.i
  %cond.i = phi i8 [ %6, %cond.false.i ], [ 32, %for.cond7.i ]
  %arrayidx22.i = getelementptr i8, ptr %call6.i, i64 %idxprom.i
  store i8 %cond.i, ptr %arrayidx22.i, align 1
  %inc.i = add i32 %i.0.i, 1
  br label %for.cond7.i, !llvm.loop !15

for.end.i:                                        ; preds = %for.cond7.i
  %7 = icmp eq i32 %3, 4
  %arrayidx24.i = getelementptr i8, ptr %call6.i, i64 %idxprom.i
  store i8 0, ptr %arrayidx24.i, align 1
  %cond27.i = select i1 %7, i32 10, i32 32
  %call28.i = tail call i32 (ptr, ...) @qemu_printf(ptr noundef nonnull @.str.47, i32 noundef %mul.i, ptr noundef nonnull @.str.20, ptr noundef %call6.i, i32 noundef %cond27.i) #10
  %8 = load ptr, ptr %value.i, align 8
  tail call fastcc void @dump_qobject(i32 noundef %add29.i, ptr noundef %8)
  br i1 %7, label %if.end.i, label %if.then.i

if.then.i:                                        ; preds = %for.end.i
  %call32.i = tail call i32 (ptr, ...) @qemu_printf(ptr noundef nonnull @.str.36) #10
  br label %if.end.i

if.end.i:                                         ; preds = %if.then.i, %for.end.i
  tail call void @g_free(ptr noundef nonnull %call6.i) #10
  %call34.i = tail call ptr @qdict_next(ptr noundef nonnull %obj, ptr noundef nonnull %entry1.0.i79) #10
  %tobool.not.i29 = icmp eq ptr %call34.i, null
  br i1 %tobool.not.i29, label %sw.epilog, label %for.body.i, !llvm.loop !16

qobject_check_type.exit39:                        ; preds = %qobject_type.exit
  %9 = getelementptr i8, ptr %obj, i64 16
  %entry1.0.i4374 = load ptr, ptr %9, align 8
  %tobool.not.i4475 = icmp eq ptr %entry1.0.i4374, null
  br i1 %tobool.not.i4475, label %sw.epilog, label %for.body.i45.lr.ph

for.body.i45.lr.ph:                               ; preds = %qobject_check_type.exit39
  %mul.i48 = shl i32 %comp_indent, 2
  %add.i51 = add i32 %comp_indent, 1
  br label %for.body.i45

for.body.i45:                                     ; preds = %for.body.i45.lr.ph, %for.inc.i
  %entry1.0.i4377 = phi ptr [ %entry1.0.i4374, %for.body.i45.lr.ph ], [ %entry1.0.i43, %for.inc.i ]
  %i.0.i4276 = phi i32 [ 0, %for.body.i45.lr.ph ], [ %inc.i53, %for.inc.i ]
  %10 = load ptr, ptr %entry1.0.i4377, align 8
  %.val.i46 = load i32, ptr %10, align 8
  %11 = add i32 %.val.i46, -1
  %or.cond.i69 = icmp ult i32 %11, 6
  br i1 %or.cond.i69, label %qobject_type.exit72, label %if.else.i70

if.else.i70:                                      ; preds = %for.body.i45
  tail call void @__assert_fail(ptr noundef nonnull @.str.43, ptr noundef nonnull @.str.44, i32 noundef 126, ptr noundef nonnull @__PRETTY_FUNCTION__.qobject_type) #13
  unreachable

qobject_type.exit72:                              ; preds = %for.body.i45
  %12 = and i32 %.val.i46, 6
  %13 = icmp eq i32 %12, 4
  %cond.i49 = select i1 %13, i32 10, i32 32
  %call5.i50 = tail call i32 (ptr, ...) @qemu_printf(ptr noundef nonnull @.str.48, i32 noundef %mul.i48, ptr noundef nonnull @.str.20, i32 noundef %i.0.i4276, i32 noundef %cond.i49) #10
  %14 = load ptr, ptr %entry1.0.i4377, align 8
  tail call fastcc void @dump_qobject(i32 noundef %add.i51, ptr noundef %14)
  br i1 %13, label %for.inc.i, label %if.then.i52

if.then.i52:                                      ; preds = %qobject_type.exit72
  %call8.i = tail call i32 (ptr, ...) @qemu_printf(ptr noundef nonnull @.str.36) #10
  br label %for.inc.i

for.inc.i:                                        ; preds = %if.then.i52, %qobject_type.exit72
  %15 = getelementptr i8, ptr %entry1.0.i4377, i64 8
  %inc.i53 = add i32 %i.0.i4276, 1
  %entry1.0.i43 = load ptr, ptr %15, align 8
  %tobool.not.i44 = icmp eq ptr %entry1.0.i43, null
  br i1 %tobool.not.i44, label %sw.epilog, label %for.body.i45, !llvm.loop !17

qobject_check_type.exit64:                        ; preds = %qobject_type.exit
  %call18 = tail call zeroext i1 @qbool_get_bool(ptr noundef nonnull %obj) #10
  %cond = select i1 %call18, ptr @.str.45, ptr @.str.46
  %call19 = tail call i32 (ptr, ...) @qemu_printf(ptr noundef nonnull @.str.39, ptr noundef nonnull %cond) #10
  br label %sw.epilog

sw.default:                                       ; preds = %qobject_type.exit
  tail call void @abort() #13
  unreachable

sw.epilog:                                        ; preds = %for.inc.i, %if.end.i, %qobject_check_type.exit39, %qobject_check_type.exit28, %qobject_check_type.exit64, %qobject_check_type.exit18, %qobject_check_type.exit
  ret void
}